; Function Attrs: nounwind uwtable
define hidden noundef zeroext i1 @SDL_GetTextureBlendMode_REAL(ptr noundef %0, ptr noundef writeonly captures(address_is_null) %1) local_unnamed_addr #0 {
  %.not = icmp eq ptr %1, null
  br i1 %.not, label %3, label %.thread

3:                                                ; preds = %2
  %4 = tail call zeroext i1 @SDL_ObjectValid(ptr noundef %0, i32 noundef 3) #15
  br i1 %4, label %11, label %6

.thread:                                          ; preds = %2
  store i32 2147483647, ptr %1, align 4
  %5 = tail call zeroext i1 @SDL_ObjectValid(ptr noundef %0, i32 noundef 3) #15
  br i1 %5, label %8, label %6

6:                                                ; preds = %.thread, %3
  %7 = tail call zeroext i1 (ptr, ...) @SDL_SetError_REAL(ptr noundef nonnull @.str.2, ptr noundef nonnull @.str.52) #15
  br label %11

8:                                                ; preds = %.thread
  %9 = getelementptr inbounds nuw i8, ptr %0, i64 32
  %10 = load i32, ptr %9, align 8
  store i32 %10, ptr %1, align 4
  br label %11

11:                                               ; preds = %3, %8, %6
  %12 = phi i1 [ true, %8 ], [ false, %6 ], [ true, %3 ]
  ret i1 %12
}